target datalayout = "e-m:e-p270:32:32-p271:32:32-p272:64:64-i64:64-i128:128-f80:128-n8:16:32:64-S128"
target triple = "x86_64-pc-linux-gnu"

%class.QString = type { %struct.QArrayDataPointer }
%struct.QArrayDataPointer = type { ptr, ptr, i64 }
%class.QSharedPointer = type { ptr, ptr }
%class.RtpPlayerDialog = type { %class.RtpBaseDialog.base, ptr, ptr, ptr, double, double, double, double, double, double, ptr, ptr, %class.QString, %class.QSharedPointer, %class.QSharedPointer.1, i8, %class.QList.2, ptr, %class.QTimer, i64, i32, ptr, i8, ptr, ptr, ptr, ptr, ptr, %class.QMultiHash, i8, i32, i8, double, ptr, %class.QPoint }
%class.RtpBaseDialog.base = type { %class.WiresharkDialog.base }
%class.WiresharkDialog.base = type <{ %class.GeometryStateDialog, ptr, i8, [7 x i8], %class.QString, %class.QList, i32, i8 }>
%class.GeometryStateDialog = type { %class.QDialog, %class.QString, ptr }
%class.QDialog = type { %class.QWidget }
%class.QWidget = type { %class.QObject, %class.QPaintDevice.base, ptr }
%class.QObject = type { ptr, %class.QScopedPointer }
%class.QScopedPointer = type { ptr }
%class.QPaintDevice.base = type <{ ptr, i16 }>
%class.QList = type { %struct.QArrayDataPointer.0 }
%struct.QArrayDataPointer.0 = type { ptr, ptr, i64 }
%class.QSharedPointer.1 = type { ptr, ptr }
%class.QList.2 = type { %struct.QArrayDataPointer.5 }
%struct.QArrayDataPointer.5 = type { ptr, ptr, i64 }
%class.QTimer = type { %class.QObject }
%class.QMultiHash = type { ptr, i64 }
%class.QPoint = type { i32, i32 }
%class.QFlags.115 = type { i32 }
%class.QEvent = type { ptr, i16, i8, i8, i8, i8, i16 }
%class.QInputEvent = type { %class.QEvent, ptr, i64, %class.QFlags.115, i32 }
%class.QPointF = type { double, double }
%class.QPointerEvent = type { %class.QInputEvent, %class.QList.116 }
%class.QList.116 = type { %struct.QArrayDataPointer.119 }
%struct.QArrayDataPointer.119 = type { ptr, ptr, i64 }
%"class.QList<QEventPoint>::const_iterator" = type { ptr }

; Function Attrs: mustprogress nounwind null_pointer_is_valid sspstrong uwtable
define linkonce_odr noundef ptr @_ZNK17QArrayDataPointerI11QEventPointE4dataEv(ptr noundef align 8 dereferenceable_or_null(24) %0) #6 comdat align 2 {
  %2 = alloca ptr, align 8
  store ptr %0, ptr %2, align 8
  %3 = load ptr, ptr %2, align 8
  %4 = getelementptr inbounds nuw %struct.QArrayDataPointer.119, ptr %3, i32 0, i32 1
  %5 = load ptr, ptr %4, align 8
  ret ptr %5
}

; Function Attrs: inlinehint mustprogress nounwind null_pointer_is_valid sspstrong uwtable
define linkonce_odr void @_ZN5QListI11QEventPointE14const_iteratorC2EPKS0_(ptr noundef align 8 dereferenceable_or_null(8) %0, ptr noundef %1) unnamed_addr #7 comdat align 2 {
  %3 = alloca ptr, align 8
  %4 = alloca ptr, align 8
  store ptr %0, ptr %3, align 8
  store ptr %1, ptr %4, align 8
  %5 = load ptr, ptr %3, align 8
  %6 = getelementptr inbounds nuw %"class.QList<QEventPoint>::const_iterator", ptr %5, i32 0, i32 0
  %7 = load ptr, ptr %4, align 8
  store ptr %7, ptr %6, align 8
  ret void
}

; Function Attrs: mustprogress nounwind null_pointer_is_valid sspstrong uwtable
define linkonce_odr noundef ptr @_ZNK17QArrayDataPointerI11QEventPointE10constBeginEv(ptr noundef align 8 dereferenceable_or_null(24) %0) #6 comdat align 2 {
  %2 = alloca ptr, align 8
  store ptr %0, ptr %2, align 8
  %3 = load ptr, ptr %2, align 8
  %4 = call noundef ptr @_ZNK17QArrayDataPointerI11QEventPointE4dataEv(ptr noundef align 8 dereferenceable_or_null(24) %3) #26
  ret ptr %4
}

; Function Attrs: mustprogress nounwind null_pointer_is_valid sspstrong uwtable
define linkonce_odr noundef ptr @_ZNK17QArrayDataPointerI11QEventPointEptEv(ptr noundef align 8 dereferenceable_or_null(24) %0) #6 comdat align 2 {
  %2 = alloca ptr, align 8
  store ptr %0, ptr %2, align 8
  %3 = load ptr, ptr %2, align 8
  ret ptr %3
}

; Function Attrs: noinline noreturn nounwind null_pointer_is_valid sspstrong uwtable
define linkonce_odr hidden void @__clang_call_terminate(ptr noundef %0) #10 comdat {
  %2 = call ptr @__cxa_begin_catch(ptr %0) #26
  call void @_ZSt9terminatev() #29
  unreachable
}

; Function Attrs: inlinehint mustprogress nounwind null_pointer_is_valid sspstrong uwtable
define linkonce_odr noundef align 8 dereferenceable(8) ptr @_ZNK5QListI11QEventPointE14const_iteratordeEv(ptr noundef align 8 dereferenceable_or_null(8) %0) #7 comdat align 2 {
  %2 = alloca ptr, align 8
  store ptr %0, ptr %2, align 8
  %3 = load ptr, ptr %2, align 8
  %4 = getelementptr inbounds nuw %"class.QList<QEventPoint>::const_iterator", ptr %3, i32 0, i32 0
  %5 = load ptr, ptr %4, align 8
  ret ptr %5
}

; Function Attrs: mustprogress nounwind null_pointer_is_valid sspstrong uwtable
define linkonce_odr ptr @_ZNK5QListI11QEventPointE5beginEv(ptr noundef align 8 dereferenceable_or_null(24) %0) #6 comdat align 2 personality ptr @__gxx_personality_v0 {
  %2 = alloca %"class.QList<QEventPoint>::const_iterator", align 8
  %3 = alloca ptr, align 8
  store ptr %0, ptr %3, align 8
  %4 = load ptr, ptr %3, align 8
  %5 = getelementptr inbounds nuw %class.QList.116, ptr %4, i32 0, i32 0
  %6 = call noundef ptr @_ZNK17QArrayDataPointerI11QEventPointEptEv(ptr noundef align 8 dereferenceable_or_null(24) %5) #26
  %7 = call noundef ptr @_ZNK17QArrayDataPointerI11QEventPointE10constBeginEv(ptr noundef align 8 dereferenceable_or_null(24) %6) #26
  invoke void @_ZN5QListI11QEventPointE14const_iteratorC2EPKS0_(ptr noundef align 8 dereferenceable_or_null(8) %2, ptr noundef %7)
          to label %8 unwind label %11

8:                                                ; preds = %1
  %9 = getelementptr inbounds nuw %"class.QList<QEventPoint>::const_iterator", ptr %2, i32 0, i32 0
  %10 = load ptr, ptr %9, align 8
  ret ptr %10

11:                                               ; preds = %1
  %12 = landingpad { ptr, i32 }
          catch ptr null
  %13 = extractvalue { ptr, i32 } %12, 0
  call void @__clang_call_terminate(ptr %13) #29
  unreachable
}

; Function Attrs: inlinehint mustprogress nounwind null_pointer_is_valid sspstrong uwtable
define linkonce_odr void @_ZN6QPointC2Eii(ptr noundef align 4 dereferenceable_or_null(8) %0, i32 noundef %1, i32 noundef %2) unnamed_addr #7 comdat align 2 {
  %4 = alloca ptr, align 8
  %5 = alloca i32, align 4
  %6 = alloca i32, align 4
  store ptr %0, ptr %4, align 8
  store i32 %1, ptr %5, align 4
  store i32 %2, ptr %6, align 4
  %7 = load ptr, ptr %4, align 8
  %8 = getelementptr inbounds nuw %class.QPoint, ptr %7, i32 0, i32 0
  %9 = load i32, ptr %5, align 4
  store i32 %9, ptr %8, align 4
  %10 = getelementptr inbounds nuw %class.QPoint, ptr %7, i32 0, i32 1
  %11 = load i32, ptr %6, align 4
  store i32 %11, ptr %10, align 4
  ret void
}

; Function Attrs: inlinehint mustprogress nounwind null_pointer_is_valid sspstrong uwtable
define linkonce_odr noundef i32 @_Z6qRoundd(double noundef %0) #7 comdat {
  %2 = alloca double, align 8
  store double %0, ptr %2, align 8
  %3 = load double, ptr %2, align 8
  %4 = load double, ptr %2, align 8
  %5 = call double @llvm.copysign.f64(double 5.000000e-01, double %4)
  %6 = fadd double %3, %5
  %7 = fptosi double %6 to i32
  ret i32 %7
}

; Function Attrs: inlinehint mustprogress nounwind null_pointer_is_valid sspstrong uwtable
define linkonce_odr noundef align 8 dereferenceable(8) ptr @_ZNK5QListI11QEventPointE5firstEv(ptr noundef align 8 dereferenceable_or_null(24) %0) #7 comdat align 2 personality ptr @__gxx_personality_v0 {
  %2 = alloca ptr, align 8
  %3 = alloca %"class.QList<QEventPoint>::const_iterator", align 8
  store ptr %0, ptr %2, align 8
  %4 = load ptr, ptr %2, align 8
  call void @llvm.lifetime.start.p0(i64 8, ptr %3) #26
  %5 = call ptr @_ZNK5QListI11QEventPointE5beginEv(ptr noundef align 8 dereferenceable_or_null(24) %4) #26
  %6 = getelementptr inbounds nuw %"class.QList<QEventPoint>::const_iterator", ptr %3, i32 0, i32 0
  store ptr %5, ptr %6, align 8
  %7 = invoke noundef align 8 dereferenceable(8) ptr @_ZNK5QListI11QEventPointE14const_iteratordeEv(ptr noundef align 8 dereferenceable_or_null(8) %3)
          to label %8 unwind label %9

8:                                                ; preds = %1
  call void @llvm.lifetime.end.p0(i64 8, ptr %3) #26
  ret ptr %7

9:                                                ; preds = %1
  %10 = landingpad { ptr, i32 }
          catch ptr null
  %11 = extractvalue { ptr, i32 } %10, 0
  call void @__clang_call_terminate(ptr %11) #29
  unreachable
}

; Function Attrs: inlinehint mustprogress null_pointer_is_valid sspstrong uwtable
define linkonce_odr i64 @_ZNK7QPointF7toPointEv(ptr noundef align 8 dereferenceable_or_null(16) %0) #8 comdat align 2 {
  %2 = alloca %class.QPoint, align 4
  %3 = alloca ptr, align 8
  store ptr %0, ptr %3, align 8
  %4 = load ptr, ptr %3, align 8
  %5 = getelementptr inbounds nuw %class.QPointF, ptr %4, i32 0, i32 0
  %6 = load double, ptr %5, align 8
  %7 = call noundef i32 @_Z6qRoundd(double noundef %6)
  %8 = getelementptr inbounds nuw %class.QPointF, ptr %4, i32 0, i32 1
  %9 = load double, ptr %8, align 8
  %10 = call noundef i32 @_Z6qRoundd(double noundef %9)
  call void @_ZN6QPointC2Eii(ptr noundef align 4 dereferenceable_or_null(8) %2, i32 noundef %7, i32 noundef %10) #26
  %11 = load i64, ptr %2, align 4
  ret i64 %11
}

; Function Attrs: inlinehint mustprogress null_pointer_is_valid sspstrong uwtable
define linkonce_odr { double, double } @_ZNK17QSinglePointEvent8positionEv(ptr noundef align 8 dereferenceable_or_null(80) %0) #8 comdat align 2 {
  %2 = alloca %class.QPointF, align 8
  %3 = alloca ptr, align 8
  store ptr %0, ptr %3, align 8
  %4 = load ptr, ptr %3, align 8
  %5 = getelementptr inbounds nuw %class.QPointerEvent, ptr %4, i32 0, i32 1
  %6 = call noundef align 8 dereferenceable(8) ptr @_ZNK5QListI11QEventPointE5firstEv(ptr noundef align 8 dereferenceable_or_null(24) %5) #26
  %7 = call { double, double } @_ZNK11QEventPoint8positionEv(ptr noundef align 8 dereferenceable_or_null(8) %6)
  %8 = getelementptr inbounds nuw { double, double }, ptr %2, i32 0, i32 0
  %9 = extractvalue { double, double } %7, 0
  store double %9, ptr %8, align 8
  %10 = getelementptr inbounds nuw { double, double }, ptr %2, i32 0, i32 1
  %11 = extractvalue { double, double } %7, 1
  store double %11, ptr %10, align 8
  %12 = load { double, double }, ptr %2, align 8
  ret { double, double } %12
}

; Function Attrs: inlinehint mustprogress null_pointer_is_valid sspstrong uwtable
define linkonce_odr i64 @_ZNK11QMouseEvent3posEv(ptr noundef align 8 dereferenceable_or_null(80) %0) #8 comdat align 2 {
  %2 = alloca %class.QPoint, align 4
  %3 = alloca ptr, align 8
  %4 = alloca %class.QPointF, align 8
  store ptr %0, ptr %3, align 8
  %5 = load ptr, ptr %3, align 8
  call void @llvm.lifetime.start.p0(i64 16, ptr %4) #26
  %6 = call { double, double } @_ZNK17QSinglePointEvent8positionEv(ptr noundef align 8 dereferenceable_or_null(80) %5)
  %7 = getelementptr inbounds nuw { double, double }, ptr %4, i32 0, i32 0
  %8 = extractvalue { double, double } %6, 0
  store double %8, ptr %7, align 8
  %9 = getelementptr inbounds nuw { double, double }, ptr %4, i32 0, i32 1
  %10 = extractvalue { double, double } %6, 1
  store double %10, ptr %9, align 8
  %11 = call i64 @_ZNK7QPointF7toPointEv(ptr noundef align 8 dereferenceable_or_null(16) %4)
  store i64 %11, ptr %2, align 4
  call void @llvm.lifetime.end.p0(i64 16, ptr %4) #26
  %12 = load i64, ptr %2, align 4
  ret i64 %12
}

; Function Attrs: mustprogress null_pointer_is_valid sspstrong uwtable
define void @_ZN15RtpPlayerDialog13mouseMovePlotEP11QMouseEvent(ptr noundef align 8 dereferenceable_or_null(472) %0, ptr noundef %1) #0 align 2 {
  %3 = alloca ptr, align 8
  %4 = alloca ptr, align 8
  %5 = alloca %class.QPoint, align 4
  store ptr %0, ptr %3, align 8
  store ptr %1, ptr %4, align 8
  %6 = load ptr, ptr %3, align 8
  call void @llvm.lifetime.start.p0(i64 8, ptr %5) #26
  %7 = load ptr, ptr %4, align 8
  %8 = call i64 @_ZNK11QMouseEvent3posEv(ptr noundef align 8 dereferenceable_or_null(80) %7)
  store i64 %8, ptr %5, align 4
  %9 = getelementptr inbounds nuw %class.RtpPlayerDialog, ptr %6, i32 0, i32 34
  call void @llvm.memcpy.p0.p0.i64(ptr align 8 %9, ptr align 4 %5, i64 8, i1 false)
  call void @llvm.lifetime.end.p0(i64 8, ptr %5) #26
  %10 = getelementptr inbounds nuw %class.RtpPlayerDialog, ptr %6, i32 0, i32 33
  %11 = load ptr, ptr %10, align 8
  %12 = call noundef zeroext i1 @_ZNK6QTimer8isActiveEv(ptr noundef align 8 dereferenceable_or_null(16) %11)
  br i1 %12, label %16, label %13

13:                                               ; preds = %2
  %14 = getelementptr inbounds nuw %class.RtpPlayerDialog, ptr %6, i32 0, i32 33
  %15 = load ptr, ptr %14, align 8
  call void @_ZN6QTimer5startEv(ptr noundef align 8 dereferenceable_or_null(16) %15)
  br label %16

16:                                               ; preds = %13, %2
  ret void
}