; Function Attrs: mustprogress null_pointer_is_valid sspstrong uwtable
define void @_ZN15RtpPlayerDialog13mouseMovePlotEP11QMouseEvent(ptr noundef align 8 captures(none) dereferenceable_or_null(472) initializes((464, 472)) %0, ptr noundef readonly captures(none) %1) #0 align 2 personality ptr @__gxx_personality_v0 {
  %3 = getelementptr inbounds nuw i8, ptr %1, i64 48
  %4 = load ptr, ptr %3, align 8
  %5 = tail call { double, double } @_ZNK11QEventPoint8positionEv(ptr noundef align 8 dereferenceable_or_null(8) %4)
  %6 = extractvalue { double, double } %5, 0
  %7 = extractvalue { double, double } %5, 1
  %8 = tail call double @llvm.copysign.f64(double 5.000000e-01, double %6)
  %9 = fadd double %6, %8
  %10 = fptosi double %9 to i32
  %11 = tail call double @llvm.copysign.f64(double 5.000000e-01, double %7)
  %12 = fadd double %7, %11
  %13 = fptosi double %12 to i32
  %.sroa.2.0.insert.ext.i.i = zext i32 %13 to i64
  %.sroa.2.0.insert.shift.i.i = shl nuw i64 %.sroa.2.0.insert.ext.i.i, 32
  %.sroa.0.0.insert.ext.i.i = zext i32 %10 to i64
  %.sroa.0.0.insert.insert.i.i = or disjoint i64 %.sroa.2.0.insert.shift.i.i, %.sroa.0.0.insert.ext.i.i
  %14 = getelementptr inbounds nuw i8, ptr %0, i64 464
  store i64 %.sroa.0.0.insert.insert.i.i, ptr %14, align 8
  %15 = getelementptr inbounds nuw i8, ptr %0, i64 456
  %16 = load ptr, ptr %15, align 8
  %17 = tail call noundef zeroext i1 @_ZNK6QTimer8isActiveEv(ptr noundef align 8 dereferenceable_or_null(16) %16)
  br i1 %17, label %20, label %18

18:                                               ; preds = %2
  %19 = load ptr, ptr %15, align 8
  tail call void @_ZN6QTimer5startEv(ptr noundef align 8 dereferenceable_or_null(16) %19)
  br label %20

20:                                               ; preds = %18, %2
  ret void
}